; ModuleID = '15/284.c'
source_filename = "15/284.c"
target datalayout = "e-m:e-p270:32:32-p271:32:32-p272:64:64-i64:64-f80:128-n8:16:32:64-S128"
target triple = "x86_64-pc-linux-gnu"

@.str = private unnamed_addr constant [3 x i8] c"%d\00", align 1
@.str.1 = private unnamed_addr constant [4 x i8] c"%d\0A\00", align 1

; Function Attrs: noinline nounwind uwtable
define dso_local i32 @main() #0 {
  %1 = alloca i32, align 4
  %2 = alloca i32, align 4
  %3 = alloca i32, align 4
  %4 = alloca i32, align 4
  %5 = alloca i32, align 4
  %6 = alloca i32, align 4
  %7 = alloca i64, align 8
  store i32 0, i32* %1, align 4
  store i32 1, i32* %4, align 4
  store i64 0, i64* %7, align 8
  %8 = call i32 (i8*, ...) @__isoc99_scanf(i8* getelementptr inbounds ([3 x i8], [3 x i8]* @.str, i64 0, i64 0), i32* %2)
  br label %9

9:                                                ; preds = %0, %16
  %10 = load i64, i64* %7, align 8
  %11 = add nsw i64 %10, 1
  store i64 %11, i64* %7, align 8
  %12 = call i32 (i8*, ...) @__isoc99_scanf(i8* getelementptr inbounds ([3 x i8], [3 x i8]* @.str, i64 0, i64 0), i32* %3)
  %13 = load i32, i32* %3, align 4
  %14 = icmp eq i32 %13, 0
  br i1 %14, label %15, label %16

15:                                               ; preds = %9
  br label %17

16:                                               ; preds = %9
  br label %9

17:                                               ; preds = %15
  %18 = load i64, i64* %7, align 8
  %19 = trunc i64 %18 to i32
  store i32 %19, i32* %5, align 4
  br label %20

20:                                               ; preds = %17, %33
  %21 = load i64, i64* %7, align 8
  %22 = add nsw i64 %21, 1
  store i64 %22, i64* %7, align 8
  %23 = call i32 (i8*, ...) @__isoc99_scanf(i8* getelementptr inbounds ([3 x i8], [3 x i8]* @.str, i64 0, i64 0), i32* %3)
  %24 = load i32, i32* %3, align 4
  %25 = icmp eq i32 %24, 0
  br i1 %25, label %26, label %29

26:                                               ; preds = %20
  %27 = load i32, i32* %4, align 4
  %28 = add nsw i32 %27, 1
  store i32 %28, i32* %4, align 4
  br label %29

29:                                               ; preds = %26, %20
  %30 = load i32, i32* %3, align 4
  %31 = icmp ne i32 %30, 0
  br i1 %31, label %32, label %33

32:                                               ; preds = %29
  br label %34

33:                                               ; preds = %29
  br label %20

34:                                               ; preds = %32
  %35 = load i64, i64* %7, align 8
  %36 = sub nsw i64 %35, 1
  %37 = trunc i64 %36 to i32
  store i32 %37, i32* %6, align 4
  br label %38

38:                                               ; preds = %34, %55
  %39 = load i64, i64* %7, align 8
  %40 = add nsw i64 %39, 1
  store i64 %40, i64* %7, align 8
  %41 = call i32 (i8*, ...) @__isoc99_scanf(i8* getelementptr inbounds ([3 x i8], [3 x i8]* @.str, i64 0, i64 0), i32* %3)
  %42 = load i32, i32* %3, align 4
  %43 = icmp eq i32 %42, 0
  br i1 %43, label %44, label %47

44:                                               ; preds = %38
  %45 = load i32, i32* %4, align 4
  %46 = add nsw i32 %45, 1
  store i32 %46, i32* %4, align 4
  br label %47

47:                                               ; preds = %44, %38
  %48 = load i64, i64* %7, align 8
  %49 = load i32, i32* %2, align 4
  %50 = load i32, i32* %2, align 4
  %51 = mul nsw i32 %49, %50
  %52 = sext i32 %51 to i64
  %53 = icmp sge i64 %48, %52
  br i1 %53, label %54, label %55

54:                                               ; preds = %47
  br label %56

55:                                               ; preds = %47
  br label %38

56:                                               ; preds = %54
  %57 = load i32, i32* %4, align 4
  %58 = load i32, i32* %6, align 4
  %59 = load i32, i32* %5, align 4
  %60 = sub nsw i32 %58, %59
  %61 = add nsw i32 %60, 1
  %62 = mul nsw i32 %61, 2
  %63 = sub nsw i32 %57, %62
  %64 = sdiv i32 %63, 2
  %65 = load i32, i32* %6, align 4
  %66 = load i32, i32* %5, align 4
  %67 = sub nsw i32 %65, %66
  %68 = sub nsw i32 %67, 1
  %69 = mul nsw i32 %64, %68
  %70 = call i32 (i8*, ...) @printf(i8* getelementptr inbounds ([4 x i8], [4 x i8]* @.str.1, i64 0, i64 0), i32 %69)
  ret i32 0
}

declare dso_local i32 @__isoc99_scanf(i8*, ...) #1

declare dso_local i32 @printf(i8*, ...) #1


!llvm.module.flags = !{!0}
!llvm.ident = !{!1}

!0 = !{i32 1, !"wchar_size", i32 4}
!1 = !{!"clang version 10.0.0-4ubuntu1 "}
