; ModuleID = 'source-C-CXX/14/284.c'
source_filename = "source-C-CXX/14/284.c"
target datalayout = "e-m:e-p270:32:32-p271:32:32-p272:64:64-i64:64-f80:128-n8:16:32:64-S128"
target triple = "x86_64-pc-linux-gnu"

@.str = private unnamed_addr constant [3 x i8] c"%d\00", align 1
@.str.1 = private unnamed_addr constant [4 x i8] c"%d\0A\00", align 1

; Function Attrs: nofree nounwind sspstrong uwtable
define dso_local i32 @main() local_unnamed_addr #0 {
  %1 = alloca i32, align 4
  %2 = alloca i32, align 4
  %3 = bitcast i32* %1 to i8*
  call void @llvm.lifetime.start.p0i8(i64 4, i8* nonnull %3) #3
  %4 = bitcast i32* %2 to i8*
  call void @llvm.lifetime.start.p0i8(i64 4, i8* nonnull %4) #3
  %5 = call i32 (i8*, ...) @__isoc99_scanf(i8* getelementptr inbounds ([3 x i8], [3 x i8]* @.str, i64 0, i64 0), i32* nonnull %1)
  br label %6

6:                                                ; preds = %6, %0
  %7 = phi i64 [ 0, %0 ], [ %8, %6 ]
  %8 = add nuw nsw i64 %7, 1
  %9 = call i32 (i8*, ...) @__isoc99_scanf(i8* getelementptr inbounds ([3 x i8], [3 x i8]* @.str, i64 0, i64 0), i32* nonnull %2)
  %10 = load i32, i32* %2, align 4, !tbaa !5
  %11 = icmp eq i32 %10, 0
  br i1 %11, label %12, label %6

12:                                               ; preds = %6, %12
  %13 = phi i32 [ %19, %12 ], [ 1, %6 ]
  %14 = phi i64 [ %15, %12 ], [ %8, %6 ]
  %15 = add nuw nsw i64 %14, 1
  %16 = call i32 (i8*, ...) @__isoc99_scanf(i8* getelementptr inbounds ([3 x i8], [3 x i8]* @.str, i64 0, i64 0), i32* nonnull %2)
  %17 = load i32, i32* %2, align 4, !tbaa !5
  %18 = icmp eq i32 %17, 0
  %19 = add nuw nsw i32 %13, 1
  br i1 %18, label %12, label %20

20:                                               ; preds = %12, %20
  %21 = phi i32 [ %28, %20 ], [ %13, %12 ]
  %22 = phi i64 [ %23, %20 ], [ %15, %12 ]
  %23 = add nuw nsw i64 %22, 1
  %24 = call i32 (i8*, ...) @__isoc99_scanf(i8* getelementptr inbounds ([3 x i8], [3 x i8]* @.str, i64 0, i64 0), i32* nonnull %2)
  %25 = load i32, i32* %2, align 4, !tbaa !5
  %26 = icmp eq i32 %25, 0
  %27 = zext i1 %26 to i32
  %28 = add nuw nsw i32 %21, %27
  %29 = load i32, i32* %1, align 4, !tbaa !5
  %30 = mul nsw i32 %29, %29
  %31 = zext i32 %30 to i64
  %32 = icmp ult i64 %23, %31
  br i1 %32, label %20, label %33

33:                                               ; preds = %20
  %34 = trunc i64 %14 to i32
  %35 = trunc i64 %8 to i32
  %36 = sub nsw i32 %34, %35
  %37 = mul i32 %36, -2
  %38 = add i32 %37, -2
  %39 = add i32 %38, %28
  %40 = sdiv i32 %39, 2
  %41 = add nsw i32 %36, -1
  %42 = mul nsw i32 %40, %41
  %43 = call i32 (i8*, ...) @printf(i8* nonnull dereferenceable(1) getelementptr inbounds ([4 x i8], [4 x i8]* @.str.1, i64 0, i64 0), i32 %42)
  call void @llvm.lifetime.end.p0i8(i64 4, i8* nonnull %4) #3
  call void @llvm.lifetime.end.p0i8(i64 4, i8* nonnull %3) #3
  ret i32 0
}

; Function Attrs: argmemonly mustprogress nofree nosync nounwind willreturn
declare void @llvm.lifetime.start.p0i8(i64 immarg, i8* nocapture) #1

; Function Attrs: nofree nounwind
declare noundef i32 @__isoc99_scanf(i8* nocapture noundef readonly, ...) local_unnamed_addr #2

; Function Attrs: nofree nounwind
declare noundef i32 @printf(i8* nocapture noundef readonly, ...) local_unnamed_addr #2

; Function Attrs: argmemonly mustprogress nofree nosync nounwind willreturn
declare void @llvm.lifetime.end.p0i8(i64 immarg, i8* nocapture) #1


!llvm.module.flags = !{!0, !1, !2, !3}
!llvm.ident = !{!4}

!0 = !{i32 1, !"wchar_size", i32 4}
!1 = !{i32 7, !"PIC Level", i32 2}
!2 = !{i32 7, !"PIE Level", i32 2}
!3 = !{i32 7, !"uwtable", i32 1}
!4 = !{!"clang version 13.0.0"}
!5 = !{!6, !6, i64 0}
!6 = !{!"int", !7, i64 0}
!7 = !{!"omnipotent char", !8, i64 0}
!8 = !{!"Simple C/C++ TBAA"}
